target datalayout = "e-m:e-p270:32:32-p271:32:32-p272:64:64-i64:64-i128:128-f80:128-n8:16:32:64-S128"
target triple = "x86_64-pc-linux-gnu"

%struct.pointf_s = type { double, double }
%struct.Agobj_s = type { %struct.Agtag_s, ptr }
%struct.Agtag_s = type { i32, i64 }
%struct.Agnodeinfo_t = type { %struct.Agrec_s, ptr, ptr, %struct.pointf_s, double, double, %struct.boxf, double, double, double, double, double, ptr, ptr, ptr, i8, i8, i8, i8, i32, i32, i32, ptr, double, i8, i8, ptr, ptr, i8, i64, i8, i8, i8, ptr, ptr, %struct.elist, %struct.elist, %struct.elist, %struct.elist, %struct.elist, ptr, i32, ptr, i32, i32, double, %struct.elist, %struct.elist, %struct.elist, %struct.elist, ptr, i32, i32, i32, [1 x double] }
%struct.Agrec_s = type { ptr, ptr }
%struct.boxf = type { %struct.pointf_s, %struct.pointf_s }
%struct.elist = type { ptr, i64 }
%struct.point = type { i32, i32 }
%struct.textlabel_t = type { ptr, ptr, ptr, i32, double, %struct.pointf_s, %struct.pointf_s, %struct.pointf_s, %union.anon.0, i8, i8, i8 }
%union.anon.0 = type { %struct.anon.1 }
%struct.anon.1 = type { ptr, i64 }
%struct.GVJ_s = type { ptr, ptr, ptr, ptr, ptr, ptr, i32, ptr, ptr, ptr, ptr, i64, i64, ptr, i32, %struct.gvplugin_active_render_s, %struct.gvplugin_active_device_s, %struct.gvplugin_active_loadimage_t, ptr, %struct.pointf_s, i8, ptr, i32, ptr, i8, ptr, i32, i32, i32, %struct.point, %struct.point, %struct.point, %struct.point, %struct.point, i32, %struct.boxf, %struct.pointf_s, %struct.boxf, %struct.boxf, %struct.pointf_s, %struct.pointf_s, double, i32, %struct.pointf_s, %struct.boxf, %struct.pointf_s, %struct.pointf_s, i32, i32, %struct.box, %struct.box, %struct.pointf_s, %struct.pointf_s, %struct.pointf_s, i8, i8, i8, i8, i8, i8, %struct.pointf_s, %struct.pointf_s, ptr, ptr, ptr, ptr, ptr, ptr, i64, ptr }
%struct.gvplugin_active_render_s = type { ptr, i32, ptr, ptr }
%struct.gvplugin_active_device_s = type { ptr, i32, ptr, ptr }
%struct.gvplugin_active_loadimage_t = type { ptr, i32, ptr }
%struct.box = type { %struct.point, %struct.point }
%struct.obj_state_s = type { ptr, i32, %union.anon.4, i32, %struct.color_s, %struct.color_s, %struct.color_s, i32, double, i32, i32, double, ptr, double, double, double, ptr, ptr, ptr, ptr, ptr, ptr, ptr, ptr, ptr, ptr, ptr, ptr, ptr, ptr, ptr, ptr, ptr, i16, i32, i64, ptr, i64, ptr, ptr, i32, ptr, i32, ptr }
%union.anon.4 = type { ptr }
%struct.color_s = type { %union.anon.5, i32 }
%union.anon.5 = type { [4 x double] }
%struct.epsf_s = type { i32, %struct.pointf_s }

@.str.162 = private unnamed_addr constant [43 x i8] c"%.5g %.5g translate newpath user_shape_%d\0A\00", align 1

; Function Attrs: nounwind uwtable
define internal void @epsf_gencode(ptr noundef %0, ptr noundef %1) #0 {
  %3 = alloca ptr, align 8
  %4 = alloca ptr, align 8
  %5 = alloca ptr, align 8
  %6 = alloca ptr, align 8
  %7 = alloca i32, align 4
  %8 = alloca i32, align 4
  store ptr %0, ptr %3, align 8, !tbaa !3
  store ptr %1, ptr %4, align 8, !tbaa !35
  call void @llvm.lifetime.start.p0(i64 8, ptr %5) #13
  %9 = load ptr, ptr %3, align 8, !tbaa !3
  %10 = getelementptr inbounds nuw %struct.GVJ_s, ptr %9, i32 0, i32 4
  %11 = load ptr, ptr %10, align 8, !tbaa !196
  store ptr %11, ptr %5, align 8, !tbaa !209
  call void @llvm.lifetime.start.p0(i64 8, ptr %6) #13
  call void @llvm.lifetime.start.p0(i64 4, ptr %7) #13
  %12 = load ptr, ptr %5, align 8, !tbaa !209
  %13 = getelementptr inbounds nuw %struct.obj_state_s, ptr %12, i32 0, i32 20
  %14 = load ptr, ptr %13, align 8, !tbaa !210
  %15 = icmp ne ptr %14, null
  br i1 %15, label %23, label %16

16:                                               ; preds = %2
  %17 = load ptr, ptr %5, align 8, !tbaa !209
  %18 = getelementptr inbounds nuw %struct.obj_state_s, ptr %17, i32 0, i32 33
  %19 = load i16, ptr %18, align 8
  %20 = and i16 %19, 1
  %21 = zext i16 %20 to i32
  %22 = icmp ne i32 %21, 0
  br label %23

23:                                               ; preds = %16, %2
  %24 = phi i1 [ true, %2 ], [ %22, %16 ]
  %25 = zext i1 %24 to i32
  store i32 %25, ptr %7, align 4, !tbaa !12
  %26 = load ptr, ptr %4, align 8, !tbaa !35
  %27 = getelementptr inbounds nuw %struct.Agobj_s, ptr %26, i32 0, i32 1
  %28 = load ptr, ptr %27, align 8, !tbaa !37
  %29 = getelementptr inbounds nuw %struct.Agnodeinfo_t, ptr %28, i32 0, i32 2
  %30 = load ptr, ptr %29, align 8, !tbaa !117
  store ptr %30, ptr %6, align 8, !tbaa !240
  %31 = load ptr, ptr %6, align 8, !tbaa !240
  %32 = icmp ne ptr %31, null
  br i1 %32, label %34, label %33

33:                                               ; preds = %23
  store i32 1, ptr %8, align 4
  br label %132

34:                                               ; preds = %23
  %35 = load i32, ptr %7, align 4, !tbaa !12
  %36 = icmp ne i32 %35, 0
  br i1 %36, label %37, label %57

37:                                               ; preds = %34
  %38 = load ptr, ptr %3, align 8, !tbaa !3
  %39 = getelementptr inbounds nuw %struct.GVJ_s, ptr %38, i32 0, i32 26
  %40 = load i32, ptr %39, align 8, !tbaa !214
  %41 = and i32 %40, 4
  %42 = icmp ne i32 %41, 0
  br i1 %42, label %57, label %43

43:                                               ; preds = %37
  %44 = load ptr, ptr %3, align 8, !tbaa !3
  %45 = load ptr, ptr %5, align 8, !tbaa !209
  %46 = getelementptr inbounds nuw %struct.obj_state_s, ptr %45, i32 0, i32 20
  %47 = load ptr, ptr %46, align 8, !tbaa !210
  %48 = load ptr, ptr %5, align 8, !tbaa !209
  %49 = getelementptr inbounds nuw %struct.obj_state_s, ptr %48, i32 0, i32 25
  %50 = load ptr, ptr %49, align 8, !tbaa !215
  %51 = load ptr, ptr %5, align 8, !tbaa !209
  %52 = getelementptr inbounds nuw %struct.obj_state_s, ptr %51, i32 0, i32 29
  %53 = load ptr, ptr %52, align 8, !tbaa !216
  %54 = load ptr, ptr %5, align 8, !tbaa !209
  %55 = getelementptr inbounds nuw %struct.obj_state_s, ptr %54, i32 0, i32 21
  %56 = load ptr, ptr %55, align 8, !tbaa !217
  call void @gvrender_begin_anchor(ptr noundef %44, ptr noundef %47, ptr noundef %50, ptr noundef %53, ptr noundef %56)
  br label %57

57:                                               ; preds = %43, %37, %34
  %58 = load ptr, ptr %6, align 8, !tbaa !240
  %59 = icmp ne ptr %58, null
  br i1 %59, label %60, label %90

60:                                               ; preds = %57
  %61 = load ptr, ptr %3, align 8, !tbaa !3
  %62 = getelementptr inbounds nuw %struct.GVJ_s, ptr %61, i32 0, i32 9
  %63 = load ptr, ptr %62, align 8, !tbaa !242
  %64 = load ptr, ptr %4, align 8, !tbaa !35
  %65 = getelementptr inbounds nuw %struct.Agobj_s, ptr %64, i32 0, i32 1
  %66 = load ptr, ptr %65, align 8, !tbaa !37
  %67 = getelementptr inbounds nuw %struct.Agnodeinfo_t, ptr %66, i32 0, i32 3
  %68 = getelementptr inbounds nuw %struct.pointf_s, ptr %67, i32 0, i32 0
  %69 = load double, ptr %68, align 8, !tbaa !219
  %70 = load ptr, ptr %6, align 8, !tbaa !240
  %71 = getelementptr inbounds nuw %struct.epsf_s, ptr %70, i32 0, i32 1
  %72 = getelementptr inbounds nuw %struct.pointf_s, ptr %71, i32 0, i32 0
  %73 = load double, ptr %72, align 8, !tbaa !243
  %74 = fadd double %69, %73
  %75 = load ptr, ptr %4, align 8, !tbaa !35
  %76 = getelementptr inbounds nuw %struct.Agobj_s, ptr %75, i32 0, i32 1
  %77 = load ptr, ptr %76, align 8, !tbaa !37
  %78 = getelementptr inbounds nuw %struct.Agnodeinfo_t, ptr %77, i32 0, i32 3
  %79 = getelementptr inbounds nuw %struct.pointf_s, ptr %78, i32 0, i32 1
  %80 = load double, ptr %79, align 8, !tbaa !220
  %81 = load ptr, ptr %6, align 8, !tbaa !240
  %82 = getelementptr inbounds nuw %struct.epsf_s, ptr %81, i32 0, i32 1
  %83 = getelementptr inbounds nuw %struct.pointf_s, ptr %82, i32 0, i32 1
  %84 = load double, ptr %83, align 8, !tbaa !245
  %85 = fadd double %80, %84
  %86 = load ptr, ptr %6, align 8, !tbaa !240
  %87 = getelementptr inbounds nuw %struct.epsf_s, ptr %86, i32 0, i32 0
  %88 = load i32, ptr %87, align 8, !tbaa !246
  %89 = call i32 (ptr, ptr, ...) @fprintf(ptr noundef %63, ptr noundef @.str.162, double noundef %74, double noundef %85, i32 noundef %88) #13
  br label %90

90:                                               ; preds = %60, %57
  %91 = load ptr, ptr %4, align 8, !tbaa !35
  %92 = getelementptr inbounds nuw %struct.Agobj_s, ptr %91, i32 0, i32 1
  %93 = load ptr, ptr %92, align 8, !tbaa !37
  %94 = getelementptr inbounds nuw %struct.Agnodeinfo_t, ptr %93, i32 0, i32 12
  %95 = load ptr, ptr %94, align 8, !tbaa !74
  %96 = getelementptr inbounds nuw %struct.textlabel_t, ptr %95, i32 0, i32 7
  %97 = load ptr, ptr %4, align 8, !tbaa !35
  %98 = getelementptr inbounds nuw %struct.Agobj_s, ptr %97, i32 0, i32 1
  %99 = load ptr, ptr %98, align 8, !tbaa !37
  %100 = getelementptr inbounds nuw %struct.Agnodeinfo_t, ptr %99, i32 0, i32 3
  call void @llvm.memcpy.p0.p0.i64(ptr align 8 %96, ptr align 8 %100, i64 16, i1 false), !tbaa.struct !16
  %101 = load ptr, ptr %3, align 8, !tbaa !3
  %102 = load ptr, ptr %4, align 8, !tbaa !35
  %103 = getelementptr inbounds nuw %struct.Agobj_s, ptr %102, i32 0, i32 1
  %104 = load ptr, ptr %103, align 8, !tbaa !37
  %105 = getelementptr inbounds nuw %struct.Agnodeinfo_t, ptr %104, i32 0, i32 12
  %106 = load ptr, ptr %105, align 8, !tbaa !74
  call void @emit_label(ptr noundef %101, i32 noundef 10, ptr noundef %106)
  %107 = load i32, ptr %7, align 4, !tbaa !12
  %108 = icmp ne i32 %107, 0
  br i1 %108, label %109, label %131

109:                                              ; preds = %90
  %110 = load ptr, ptr %3, align 8, !tbaa !3
  %111 = getelementptr inbounds nuw %struct.GVJ_s, ptr %110, i32 0, i32 26
  %112 = load i32, ptr %111, align 8, !tbaa !214
  %113 = and i32 %112, 4
  %114 = icmp ne i32 %113, 0
  br i1 %114, label %115, label %129

115:                                              ; preds = %109
  %116 = load ptr, ptr %3, align 8, !tbaa !3
  %117 = load ptr, ptr %5, align 8, !tbaa !209
  %118 = getelementptr inbounds nuw %struct.obj_state_s, ptr %117, i32 0, i32 20
  %119 = load ptr, ptr %118, align 8, !tbaa !210
  %120 = load ptr, ptr %5, align 8, !tbaa !209
  %121 = getelementptr inbounds nuw %struct.obj_state_s, ptr %120, i32 0, i32 25
  %122 = load ptr, ptr %121, align 8, !tbaa !215
  %123 = load ptr, ptr %5, align 8, !tbaa !209
  %124 = getelementptr inbounds nuw %struct.obj_state_s, ptr %123, i32 0, i32 29
  %125 = load ptr, ptr %124, align 8, !tbaa !216
  %126 = load ptr, ptr %5, align 8, !tbaa !209
  %127 = getelementptr inbounds nuw %struct.obj_state_s, ptr %126, i32 0, i32 21
  %128 = load ptr, ptr %127, align 8, !tbaa !217
  call void @gvrender_begin_anchor(ptr noundef %116, ptr noundef %119, ptr noundef %122, ptr noundef %125, ptr noundef %128)
  br label %129

129:                                              ; preds = %115, %109
  %130 = load ptr, ptr %3, align 8, !tbaa !3
  call void @gvrender_end_anchor(ptr noundef %130)
  br label %131

131:                                              ; preds = %129, %90
  store i32 0, ptr %8, align 4
  br label %132

132:                                              ; preds = %131, %33
  call void @llvm.lifetime.end.p0(i64 4, ptr %7) #13
  call void @llvm.lifetime.end.p0(i64 8, ptr %6) #13
  call void @llvm.lifetime.end.p0(i64 8, ptr %5) #13
  %133 = load i32, ptr %8, align 4
  switch i32 %133, label %135 [
    i32 0, label %134
    i32 1, label %134
  ]

134:                                              ; preds = %132, %132
  ret void

135:                                              ; preds = %132
  unreachable
}