; Function Attrs: nounwind uwtable
define internal void @epsf_gencode(ptr noundef %0, ptr noundef readonly captures(none) %1) #0 {
  %3 = getelementptr inbounds nuw i8, ptr %0, i64 32
  %4 = load ptr, ptr %3, align 8, !tbaa !176
  %5 = getelementptr inbounds nuw i8, ptr %4, i64 248
  %6 = load ptr, ptr %5, align 8, !tbaa !191
  %.not = icmp eq ptr %6, null
  %7 = getelementptr inbounds nuw i8, ptr %1, i64 16
  %8 = load ptr, ptr %7, align 8, !tbaa !21
  %9 = getelementptr inbounds nuw i8, ptr %8, i64 24
  %10 = load ptr, ptr %9, align 8, !tbaa !100
  %.not30 = icmp eq ptr %10, null
  br i1 %.not, label %11, label %.thread

11:                                               ; preds = %2
  br i1 %.not30, label %64, label %12

.thread:                                          ; preds = %2
  br i1 %.not30, label %64, label %.thread34

12:                                               ; preds = %11
  %13 = getelementptr inbounds nuw i8, ptr %4, i64 352
  %14 = load i16, ptr %13, align 8
  %15 = and i16 %14, 1
  %.not35 = icmp eq i16 %15, 0
  br i1 %.not35, label %26, label %.thread34

.thread34:                                        ; preds = %.thread, %12
  %16 = getelementptr inbounds nuw i8, ptr %0, i64 280
  %17 = load i32, ptr %16, align 8, !tbaa !195
  %18 = and i32 %17, 4
  %.not31 = icmp eq i32 %18, 0
  br i1 %.not31, label %19, label %26

19:                                               ; preds = %.thread34
  %20 = getelementptr inbounds nuw i8, ptr %4, i64 288
  %21 = load ptr, ptr %20, align 8, !tbaa !196
  %22 = getelementptr inbounds nuw i8, ptr %4, i64 320
  %23 = load ptr, ptr %22, align 8, !tbaa !197
  %24 = getelementptr inbounds nuw i8, ptr %4, i64 256
  %25 = load ptr, ptr %24, align 8, !tbaa !198
  tail call void @gvrender_begin_anchor(ptr noundef nonnull %0, ptr noundef %6, ptr noundef %21, ptr noundef %23, ptr noundef %25) #26
  %.pre = load ptr, ptr %7, align 8, !tbaa !21
  br label %26

26:                                               ; preds = %12, %.thread34, %19
  %27 = phi ptr [ %8, %12 ], [ %8, %.thread34 ], [ %.pre, %19 ]
  %28 = phi i1 [ false, %12 ], [ true, %.thread34 ], [ true, %19 ]
  %29 = getelementptr inbounds nuw i8, ptr %0, i64 72
  %30 = load ptr, ptr %29, align 8, !tbaa !219
  %31 = getelementptr inbounds nuw i8, ptr %27, i64 32
  %32 = load double, ptr %31, align 8, !tbaa !201
  %33 = getelementptr inbounds nuw i8, ptr %10, i64 8
  %34 = load double, ptr %33, align 8, !tbaa !220
  %35 = fadd double %32, %34
  %36 = getelementptr inbounds nuw i8, ptr %27, i64 40
  %37 = load double, ptr %36, align 8, !tbaa !202
  %38 = getelementptr inbounds nuw i8, ptr %10, i64 16
  %39 = load double, ptr %38, align 8, !tbaa !222
  %40 = fadd double %37, %39
  %41 = load i32, ptr %10, align 8, !tbaa !223
  %42 = tail call i32 (ptr, ptr, ...) @fprintf(ptr noundef %30, ptr noundef nonnull @.str.162, double noundef %35, double noundef %40, i32 noundef %41) #26
  %43 = load ptr, ptr %7, align 8, !tbaa !21
  %44 = getelementptr inbounds nuw i8, ptr %43, i64 136
  %45 = load ptr, ptr %44, align 8, !tbaa !60
  %46 = getelementptr inbounds nuw i8, ptr %45, i64 72
  %47 = getelementptr inbounds nuw i8, ptr %43, i64 32
  tail call void @llvm.memcpy.p0.p0.i64(ptr noundef nonnull align 8 dereferenceable(16) %46, ptr noundef nonnull align 8 dereferenceable(16) %47, i64 16, i1 false), !tbaa.struct !3
  %48 = load ptr, ptr %7, align 8, !tbaa !21
  %49 = getelementptr inbounds nuw i8, ptr %48, i64 136
  %50 = load ptr, ptr %49, align 8, !tbaa !60
  tail call void @emit_label(ptr noundef nonnull %0, i32 noundef 10, ptr noundef %50) #26
  br i1 %28, label %51, label %64

51:                                               ; preds = %26
  %52 = getelementptr inbounds nuw i8, ptr %0, i64 280
  %53 = load i32, ptr %52, align 8, !tbaa !195
  %54 = and i32 %53, 4
  %.not32 = icmp eq i32 %54, 0
  br i1 %.not32, label %63, label %55

55:                                               ; preds = %51
  %56 = load ptr, ptr %5, align 8, !tbaa !191
  %57 = getelementptr inbounds nuw i8, ptr %4, i64 288
  %58 = load ptr, ptr %57, align 8, !tbaa !196
  %59 = getelementptr inbounds nuw i8, ptr %4, i64 320
  %60 = load ptr, ptr %59, align 8, !tbaa !197
  %61 = getelementptr inbounds nuw i8, ptr %4, i64 256
  %62 = load ptr, ptr %61, align 8, !tbaa !198
  tail call void @gvrender_begin_anchor(ptr noundef nonnull %0, ptr noundef %56, ptr noundef %58, ptr noundef %60, ptr noundef %62) #26
  br label %63

63:                                               ; preds = %55, %51
  tail call void @gvrender_end_anchor(ptr noundef nonnull %0) #26
  br label %64

64:                                               ; preds = %.thread, %26, %63, %11
  ret void
}